(dp0
S'fire_bool'
p1
(dp2
S'transformation'
p3
S'bool_col'
p4
ssS'month'
p5
(dp6
g3
S'all_dummies'
p7
ssS'state_name'
p8
(dp9
g3
S'return_n'
p10
sS'dummies_to_grab'
p11
S'both'
p12
sS'n'
p13
I10
ssS'year'
p14
(dp15
g3
g7
ss.