(lp0
S'lat'
p1
aS'long'
p2
aS'frp'
p3
aS'date_fire'
p4
aS'fire_bool'
p5
aS'urban_area_bool'
p6
aS'county_aland'
p7
aS'county_water'
p8
aS'gmt'
p9
aS'temp'
p10
aS'conf'
p11
aS'month'
p12
aS'year'
p13
aS'nearby_count_1'
p14
aS'nearby_count_2'
p15
aS'nearby_count_3'
p16
aS'nearby_count_4'
p17
aS'nearby_count_5'
p18
aS'nearby_count_6'
p19
aS'nearby_count_7'
p20
a.