(dp0
S'fire_bool'
p1
(dp2
S'transformation'
p3
S'bool_col'
p4
ssS'tpix'
p5
(dp6
S'std_multiplier'
p7
I2
sg3
S'outlier_boolean'
p8
ssS'state_name'
p9
(dp10
S'manip_type'
p11
S'eval'
p12
sS'eval_string'
p13
S'fire_bool - conf / 100.0'
p14
sg3
S'return_top_n'
p15
sS'new_col'
p16
S'fire_conf_diff'
p17
sS'n'
p18
I5
ssS'urban_area_bool'
p19
(dp20
g3
g4
ssS'month'
p21
(dp22
g3
S'all_dummies'
p23
ssS'year'
p24
(dp25
g3
g23
ssS'land_water_ratio'
p26
(dp27
g13
S'county_aland / county_water'
p28
sS'replace_nulls'
p29
I01
sS'delete_columns'
p30
(lp31
S'county_aland'
p32
aS'county_water'
p33
asg3
S'create_new_col'
p34
ss.