(lp0
S'lat'
p1
aS'long'
p2
aS'gmt'
p3
aS'temp'
p4
aS'conf'
p5
aS'frp'
p6
aS'urban_areas_bool'
p7
aS'state_fips'
p8
aS'land_water_ratio'
p9
aS'all_nearby_count0'
p10
aS'all_nearby_count1'
p11
aS'all_nearby_count2'
p12
aS'all_nearby_count3'
p13
aS'all_nearby_count4'
p14
aS'all_nearby_count5'
p15
aS'all_nearby_count6'
p16
aS'all_nearby_count7'
p17
aS'all_nearby_fires1'
p18
aS'all_nearby_fires2'
p19
aS'all_nearby_fires3'
p20
aS'all_nearby_fires4'
p21
aS'all_nearby_fires5'
p22
aS'all_nearby_fires6'
p23
aS'all_nearby_fires7'
p24
aS'all_nearby_count365'
p25
aS'all_nearby_fires365'
p26
aS'all_nearby_count730'
p27
aS'all_nearby_fires730'
p28
aS'all_nearby_count1095'
p29
aS'all_nearby_fires1095'
p30
aS'year_2014'
p31
aS'year_2013'
p32
aS'year_2012'
p33
aS'year_2015'
p34
aS'month_1'
p35
aS'month_2'
p36
aS'month_3'
p37
aS'month_4'
p38
aS'month_5'
p39
aS'month_6'
p40
aS'month_7'
p41
aS'month_8'
p42
aS'month_9'
p43
aS'month_10'
p44
aS'month_11'
p45
aS'month_12'
p46
aS'date_fire'
p47
aS'fire_bool'
p48
aS'sat_src_A'
p49
aS'sat_src_T'
p50
aS'src_gsfc'
p51
aS'src_gsfc_drl'
p52
aS'src_rsac'
p53
aS'src_ssec'
p54
aS'src_uaf'
p55
a.