(dp0
S'fire_bool'
p1
(dp2
S'transformation'
p3
S'bool_col'
p4
ssS'urban_area_bool'
p5
(dp6
g3
g4
ssS'spix'
p7
(dp8
S'std_multiplier'
p9
I2
sg3
S'outlier_boolean'
p10
ssS'month'
p11
(dp12
g3
S'all_dummies'
p13
ssS'year'
p14
(dp15
g3
g13
ssS'land_water_ratio'
p16
(dp17
S'eval_string'
p18
S'county_aland / county_water'
p19
sS'replace_nulls'
p20
I01
sS'delete_columns'
p21
(lp22
S'county_aland'
p23
aS'county_water'
p24
asg3
S'create_new_col'
p25
ss.