(dp0
S'urban_area_bool'
p1
(dp2
S'transformation'
p3
S'bool_col'
p4
ssS'land_water_ratio'
p5
(dp6
S'eval_string'
p7
S'county_aland / county_water'
p8
sS'replace_nulls'
p9
I01
sS'delete_columns'
p10
(lp11
S'county_aland'
p12
aS'county_water'
p13
asg3
S'create_new_col'
p14
ssS'fire_bool'
p15
(dp16
g3
g4
ssS'month'
p17
(dp18
g3
S'all_dummies'
p19
ssS'year'
p20
(dp21
g3
g19
ss.