(dp0
S'fire_bool'
p1
(dp2
S'transformation'
p3
S'bool_col'
p4
ssS'add_nearby_fires'
p5
(dp6
S'time_measures'
p7
(lp8
I7
asS'dist_measure'
p9
F0.1
ssS'urban_area_bool'
p10
(dp11
g3
g4
ssS'month'
p12
(dp13
g3
S'all_dummies'
p14
ssS'year'
p15
(dp16
g3
g14
ssS'land_water_ratio'
p17
(dp18
S'eval_string'
p19
S'county_aland / county_water'
p20
sS'replace_nulls'
p21
I01
sS'delete_columns'
p22
(lp23
S'county_aland'
p24
aS'county_water'
p25
asg3
S'create_new_col'
p26
ss.