(lp0
S'lat'
p1
aS'long'
p2
aS'frp'
p3
aS'date_fire'
p4
aS'fire_bool'
p5
aS'urban_areas_bool'
p6
aS'land_water_ratio'
p7
aS'gmt'
p8
aS'temp'
p9
aS'conf'
p10
aS'all_nearby_fires1'
p11
aS'all_nearby_fires2'
p12
aS'all_nearby_fires3'
p13
aS'all_nearby_fires4'
p14
aS'all_nearby_fires5'
p15
aS'all_nearby_fires6'
p16
aS'all_nearby_fires7'
p17
aS'year_2012'
p18
aS'year_2013'
p19
aS'year_2014'
p20
aS'year_2015'
p21
aS'month_1'
p22
aS'month_2'
p23
aS'month_3'
p24
aS'month_4'
p25
aS'month_5'
p26
aS'month_6'
p27
aS'month_7'
p28
aS'month_8'
p29
aS'month_9'
p30
aS'month_10'
p31
aS'month_11'
p32
aS'month_12'
p33
a.