(dp0
S'fire_bool'
p1
(dp2
S'transformation'
p3
S'bool_col'
p4
ssS'add_nearby_fires'
p5
(dp6
S'time_measures'
p7
(lp8
I7
asS'dist_measure'
p9
F0.1
sS'rate_measures'
p10
I00
ssS'urban_area_bool'
p11
(dp12
g3
g4
ssS'month'
p13
(dp14
g3
S'all_dummies'
p15
ssS'year'
p16
(dp17
g3
g15
ssS'land_water_ratio'
p18
(dp19
S'eval_string'
p20
S'county_aland / county_water'
p21
sS'replace_nulls'
p22
I01
sS'delete_columns'
p23
(lp24
S'county_aland'
p25
aS'county_water'
p26
asg3
S'create_new_col'
p27
ss.