(dp0
S'fire_bool'
p1
(dp2
S'transformation'
p3
S'bool_col'
p4
ssS'urban_area_bool'
p5
(dp6
g3
g4
ssS'month'
p7
(dp8
g3
S'all_dummies'
p9
ssS'sat_src'
p10
(dp11
g3
g9
ssS'year'
p12
(dp13
g3
g9
ssS'land_water_ratio'
p14
(dp15
S'eval_string'
p16
S'county_aland / county_water'
p17
sS'replace_nulls'
p18
I01
sS'delete_columns'
p19
(lp20
S'county_aland'
p21
aS'county_water'
p22
asg3
S'create_new_col'
p23
ss.