(dp0
S'fire_bool'
p1
(dp2
S'transformation'
p3
S'bool_col'
p4
ssS'month'
p5
(dp6
g3
S'all_dummies'
p7
ssS'county_name'
p8
(dp9
S'manip_type'
p10
S'eval'
p11
sS'eval_string'
p12
S'fire_bool - conf'
p13
sg3
S'return_top_n'
p14
sS'new_col'
p15
S'fire_conf_diff'
p16
sS'n'
p17
I10
ssS'year'
p18
(dp19
g3
g7
ss.