(lp0
Vlat
p1
aVlong
p2
aVgmt
p3
aVtemp
p4
aVspix
p5
aVtpix
p6
aVconf
p7
aVfrp
p8
aVfire_bool
p9
aVurban_areas_bool
p10
aVregion_aland
p11
aVregion_awater
p12
aVregion_lsad
p13
aVcounty_lsad
p14
aVstate_aland
p15
aVstate_awater
p16
aVstate_lsad
p17
aVdate_fire
p18
aVland_water_ratio
p19
aVall_nearby_count0
p20
aVall_nearby_fires0
p21
aVall_nearby_count1
p22
aVall_nearby_fires1
p23
aVall_nearby_count2
p24
aVall_nearby_fires2
p25
aVall_nearby_count3
p26
aVall_nearby_fires3
p27
aVall_nearby_count4
p28
aVall_nearby_fires4
p29
aVall_nearby_count5
p30
aVall_nearby_fires5
p31
aVall_nearby_count6
p32
aVall_nearby_fires6
p33
aVall_nearby_count7
p34
aVall_nearby_fires7
p35
aVall_nearby_count365
p36
aVall_nearby_fires365
p37
aVall_nearby_count730
p38
aVall_nearby_fires730
p39
aVall_nearby_count1095
p40
aVall_nearby_fires1095
p41
aVperc_fires0
p42
aVperc_fires1
p43
aVperc_fires2
p44
aVperc_fires3
p45
aVperc_fires4
p46
aVperc_fires5
p47
aVperc_fires6
p48
aVperc_fires7
p49
aVperc_fires365
p50
aVperc_fires730
p51
aVperc_fires1095
p52
aVsat_src_A
p53
aVsat_src_T
p54
aVsrc_gsfc
p55
aVsrc_gsfc_drl
p56
aVsrc_rsac
p57
aVsrc_ssec
p58
aVsrc_uaf
p59
aVyear_2012
p60
aVyear_2013
p61
aVyear_2014
p62
aVyear_2015
p63
aVmonth_1
p64
aVmonth_2
p65
aVmonth_3
p66
aVmonth_4
p67
aVmonth_5
p68
aVmonth_6
p69
aVmonth_7
p70
aVmonth_8
p71
aVmonth_9
p72
aVmonth_10
p73
aVmonth_11
p74
aVmonth_12
p75
a.