(dp0
S'src'
p1
(dp2
S'transformation'
p3
S'all_dummies'
p4
ssS'fire_bool'
p5
(dp6
g3
S'bool_col'
p7
ssS'urban_area_bool'
p8
(dp9
g3
g7
ssS'month'
p10
(dp11
g3
g4
ssS'sat_src'
p12
(dp13
g3
g4
ssS'year'
p14
(dp15
g3
g4
ssS'land_water_ratio'
p16
(dp17
S'eval_string'
p18
S'county_aland / county_water'
p19
sS'replace_nulls'
p20
I01
sS'delete_columns'
p21
(lp22
S'county_aland'
p23
aS'county_water'
p24
asg3
S'create_new_col'
p25
ss.