(dp0
S'land_water_ratio'
p1
(dp2
S'eval_string'
p3
S'county_aland / county_awater'
p4
sS'delete_columns'
p5
(lp6
S'county_aland'
p7
aS'county_awater'
p8
asS'transformation'
p9
S'create_new_col'
p10
sS'new_col_name'
p11
g1
ssS'add_nearby_fires'
p12
(dp13
S'time_measures'
p14
(lp15
I0
aI1
aI2
aI3
aI4
aI5
aI6
aI7
aI365
aI730
aI1095
asS'dist_measure'
p16
F0.1
sg9
g12
ss.