(dp0
S'land_water_ratio'
p1
(dp2
S'eval_string'
p3
S'county_aland / county_awater'
p4
sS'delete_columns'
p5
(lp6
S'county_aland'
p7
aS'county_awater'
p8
asS'transformation'
p9
S'create_new_col'
p10
ssS'add_nearby_fires'
p11
(dp12
S'time_measures'
p13
(lp14
I1
asS'dist_measure'
p15
F0.1
sg9
g11
ss.